target datalayout = "e-m:e-p270:32:32-p271:32:32-p272:64:64-i64:64-i128:128-f80:128-n8:16:32:64-S128"
target triple = "x86_64-pc-linux-gnu"

%struct.ParseState = type { ptr, ptr, i32, i32, ptr, ptr, ptr, ptr, ptr, ptr, i8, ptr, ptr, ptr, ptr, ptr, ptr, i8, ptr, i32, i32, ptr, ptr, i8, i8, ptr, i8, i8, i8, i8, i8, ptr, ptr, ptr, ptr, ptr, ptr }

@.str.3 = private unnamed_addr constant [13 x i8] c"parse_func.c\00", align 1
@.str.72 = private unnamed_addr constant [59 x i8] c"set-returning functions are not allowed in JOIN conditions\00", align 1
@.str.73 = private unnamed_addr constant [57 x i8] c"set-returning functions must appear at top level of FROM\00", align 1
@__func__.check_srf_call_placement = private unnamed_addr constant [25 x i8] c"check_srf_call_placement\00", align 1
@.str.74 = private unnamed_addr constant [62 x i8] c"set-returning functions are not allowed in policy expressions\00", align 1
@.str.75 = private unnamed_addr constant [62 x i8] c"set-returning functions are not allowed in window definitions\00", align 1
@.str.76 = private unnamed_addr constant [65 x i8] c"set-returning functions are not allowed in MERGE WHEN conditions\00", align 1
@.str.77 = private unnamed_addr constant [61 x i8] c"set-returning functions are not allowed in check constraints\00", align 1
@.str.78 = private unnamed_addr constant [63 x i8] c"set-returning functions are not allowed in DEFAULT expressions\00", align 1
@.str.79 = private unnamed_addr constant [61 x i8] c"set-returning functions are not allowed in index expressions\00", align 1
@.str.80 = private unnamed_addr constant [60 x i8] c"set-returning functions are not allowed in index predicates\00", align 1
@.str.81 = private unnamed_addr constant [66 x i8] c"set-returning functions are not allowed in statistics expressions\00", align 1
@.str.82 = private unnamed_addr constant [65 x i8] c"set-returning functions are not allowed in transform expressions\00", align 1
@.str.83 = private unnamed_addr constant [62 x i8] c"set-returning functions are not allowed in EXECUTE parameters\00", align 1
@.str.84 = private unnamed_addr constant [67 x i8] c"set-returning functions are not allowed in trigger WHEN conditions\00", align 1
@.str.85 = private unnamed_addr constant [59 x i8] c"set-returning functions are not allowed in partition bound\00", align 1
@.str.86 = private unnamed_addr constant [69 x i8] c"set-returning functions are not allowed in partition key expressions\00", align 1
@.str.87 = private unnamed_addr constant [58 x i8] c"set-returning functions are not allowed in CALL arguments\00", align 1
@.str.88 = private unnamed_addr constant [70 x i8] c"set-returning functions are not allowed in COPY FROM WHERE conditions\00", align 1
@.str.89 = private unnamed_addr constant [73 x i8] c"set-returning functions are not allowed in column generation expressions\00", align 1
@.str.90 = private unnamed_addr constant [3 x i8] c"%s\00", align 1
@.str.91 = private unnamed_addr constant [46 x i8] c"set-returning functions are not allowed in %s\00", align 1

; Function Attrs: nounwind uwtable
define dso_local void @check_srf_call_placement(ptr noundef %0, ptr noundef %1, i32 noundef %2) #0 {
  %4 = alloca ptr, align 8
  %5 = alloca ptr, align 8
  %6 = alloca i32, align 4
  %7 = alloca ptr, align 8
  %8 = alloca i8, align 1
  store ptr %0, ptr %4, align 8
  store ptr %1, ptr %5, align 8
  store i32 %2, ptr %6, align 4
  call void @llvm.lifetime.start.p0(i64 8, ptr %7) #7
  call void @llvm.lifetime.start.p0(i64 1, ptr %8) #7
  store ptr null, ptr %7, align 8
  store i8 0, ptr %8, align 1
  %9 = load ptr, ptr %4, align 8
  %10 = getelementptr inbounds nuw %struct.ParseState, ptr %9, i32 0, i32 19
  %11 = load i32, ptr %10, align 8
  switch i32 %11, label %79 [
    i32 0, label %12
    i32 1, label %79
    i32 2, label %13
    i32 3, label %13
    i32 4, label %14
    i32 5, label %15
    i32 6, label %40
    i32 38, label %41
    i32 7, label %42
    i32 8, label %43
    i32 9, label %44
    i32 10, label %44
    i32 11, label %47
    i32 12, label %47
    i32 13, label %47
    i32 14, label %48
    i32 15, label %48
    i32 16, label %51
    i32 17, label %51
    i32 19, label %52
    i32 20, label %52
    i32 21, label %55
    i32 22, label %58
    i32 23, label %58
    i32 24, label %59
    i32 25, label %59
    i32 26, label %60
    i32 27, label %61
    i32 18, label %64
    i32 28, label %65
    i32 29, label %65
    i32 30, label %66
    i32 31, label %66
    i32 32, label %67
    i32 33, label %68
    i32 34, label %69
    i32 35, label %70
    i32 36, label %71
    i32 37, label %72
    i32 39, label %73
    i32 40, label %74
    i32 41, label %75
    i32 42, label %76
    i32 43, label %77
    i32 44, label %78
  ]

12:                                               ; preds = %3
  br label %79

13:                                               ; preds = %3, %3
  store ptr @.str.72, ptr %7, align 8
  br label %79

14:                                               ; preds = %3
  store i8 1, ptr %8, align 1
  br label %79

15:                                               ; preds = %3
  %16 = load ptr, ptr %4, align 8
  %17 = getelementptr inbounds nuw %struct.ParseState, ptr %16, i32 0, i32 31
  %18 = load ptr, ptr %17, align 8
  %19 = load ptr, ptr %5, align 8
  %20 = icmp ne ptr %18, %19
  br i1 %20, label %21, label %39

21:                                               ; preds = %15
  br label %22

22:                                               ; preds = %21
  br i1 true, label %23, label %25

23:                                               ; preds = %22
  %24 = call zeroext i1 @errstart_cold(i32 noundef 21, ptr noundef null) #8
  br i1 %24, label %27, label %36

25:                                               ; preds = %22
  %26 = call zeroext i1 @errstart(i32 noundef 21, ptr noundef null)
  br i1 %26, label %27, label %36

27:                                               ; preds = %25, %23
  %28 = call i32 @errcode(i32 noundef 1088)
  %29 = call i32 (ptr, ...) @errmsg(ptr noundef @.str.73)
  %30 = load ptr, ptr %4, align 8
  %31 = load ptr, ptr %4, align 8
  %32 = getelementptr inbounds nuw %struct.ParseState, ptr %31, i32 0, i32 31
  %33 = load ptr, ptr %32, align 8
  %34 = call i32 @exprLocation(ptr noundef %33)
  %35 = call i32 @parser_errposition(ptr noundef %30, i32 noundef %34)
  call void @errfinish(ptr noundef @.str.3, i32 noundef 2555, ptr noundef @__func__.check_srf_call_placement)
  br label %36

36:                                               ; preds = %27, %25, %23
  unreachable

37:                                               ; No predecessors!
  br label %38

38:                                               ; preds = %37
  br label %39

39:                                               ; preds = %38, %15
  br label %79

40:                                               ; preds = %3
  store i8 1, ptr %8, align 1
  br label %79

41:                                               ; preds = %3
  store ptr @.str.74, ptr %7, align 8
  br label %79

42:                                               ; preds = %3
  store i8 1, ptr %8, align 1
  br label %79

43:                                               ; preds = %3
  store i8 1, ptr %8, align 1
  br label %79

44:                                               ; preds = %3, %3
  %45 = load ptr, ptr %4, align 8
  %46 = getelementptr inbounds nuw %struct.ParseState, ptr %45, i32 0, i32 28
  store i8 1, ptr %46, align 2
  br label %79

47:                                               ; preds = %3, %3, %3
  store ptr @.str.75, ptr %7, align 8
  br label %79

48:                                               ; preds = %3, %3
  %49 = load ptr, ptr %4, align 8
  %50 = getelementptr inbounds nuw %struct.ParseState, ptr %49, i32 0, i32 28
  store i8 1, ptr %50, align 2
  br label %79

51:                                               ; preds = %3, %3
  store i8 1, ptr %8, align 1
  br label %79

52:                                               ; preds = %3, %3
  %53 = load ptr, ptr %4, align 8
  %54 = getelementptr inbounds nuw %struct.ParseState, ptr %53, i32 0, i32 28
  store i8 1, ptr %54, align 2
  br label %79

55:                                               ; preds = %3
  %56 = load ptr, ptr %4, align 8
  %57 = getelementptr inbounds nuw %struct.ParseState, ptr %56, i32 0, i32 28
  store i8 1, ptr %57, align 2
  br label %79

58:                                               ; preds = %3, %3
  store i8 1, ptr %8, align 1
  br label %79

59:                                               ; preds = %3, %3
  store i8 1, ptr %8, align 1
  br label %79

60:                                               ; preds = %3
  store i8 1, ptr %8, align 1
  br label %79

61:                                               ; preds = %3
  %62 = load ptr, ptr %4, align 8
  %63 = getelementptr inbounds nuw %struct.ParseState, ptr %62, i32 0, i32 28
  store i8 1, ptr %63, align 2
  br label %79

64:                                               ; preds = %3
  store ptr @.str.76, ptr %7, align 8
  br label %79

65:                                               ; preds = %3, %3
  store ptr @.str.77, ptr %7, align 8
  br label %79

66:                                               ; preds = %3, %3
  store ptr @.str.78, ptr %7, align 8
  br label %79

67:                                               ; preds = %3
  store ptr @.str.79, ptr %7, align 8
  br label %79

68:                                               ; preds = %3
  store ptr @.str.80, ptr %7, align 8
  br label %79

69:                                               ; preds = %3
  store ptr @.str.81, ptr %7, align 8
  br label %79

70:                                               ; preds = %3
  store ptr @.str.82, ptr %7, align 8
  br label %79

71:                                               ; preds = %3
  store ptr @.str.83, ptr %7, align 8
  br label %79

72:                                               ; preds = %3
  store ptr @.str.84, ptr %7, align 8
  br label %79

73:                                               ; preds = %3
  store ptr @.str.85, ptr %7, align 8
  br label %79

74:                                               ; preds = %3
  store ptr @.str.86, ptr %7, align 8
  br label %79

75:                                               ; preds = %3
  store ptr @.str.87, ptr %7, align 8
  br label %79

76:                                               ; preds = %3
  store ptr @.str.88, ptr %7, align 8
  br label %79

77:                                               ; preds = %3
  store ptr @.str.89, ptr %7, align 8
  br label %79

78:                                               ; preds = %3
  store i8 1, ptr %8, align 1
  br label %79

79:                                               ; preds = %3, %78, %77, %76, %75, %74, %73, %72, %71, %70, %69, %68, %67, %66, %3, %65, %64, %61, %60, %59, %58, %55, %52, %51, %48, %47, %44, %43, %42, %41, %40, %39, %14, %13, %12
  %80 = load ptr, ptr %7, align 8
  %81 = icmp ne ptr %80, null
  br i1 %81, label %82, label %98

82:                                               ; preds = %79
  br label %83

83:                                               ; preds = %82
  br i1 true, label %84, label %86

84:                                               ; preds = %83
  %85 = call zeroext i1 @errstart_cold(i32 noundef 21, ptr noundef null) #8
  br i1 %85, label %88, label %95

86:                                               ; preds = %83
  %87 = call zeroext i1 @errstart(i32 noundef 21, ptr noundef null)
  br i1 %87, label %88, label %95

88:                                               ; preds = %86, %84
  %89 = call i32 @errcode(i32 noundef 1088)
  %90 = load ptr, ptr %7, align 8
  %91 = call i32 (ptr, ...) @errmsg_internal(ptr noundef @.str.90, ptr noundef %90)
  %92 = load ptr, ptr %4, align 8
  %93 = load i32, ptr %6, align 4
  %94 = call i32 @parser_errposition(ptr noundef %92, i32 noundef %93)
  call void @errfinish(ptr noundef @.str.3, i32 noundef 2674, ptr noundef @__func__.check_srf_call_placement)
  br label %95

95:                                               ; preds = %88, %86, %84
  unreachable

96:                                               ; No predecessors!
  br label %97

97:                                               ; preds = %96
  br label %98

98:                                               ; preds = %97, %79
  %99 = load i8, ptr %8, align 1, !range !4, !noundef !5
  %100 = trunc i8 %99 to i1
  br i1 %100, label %101, label %120

101:                                              ; preds = %98
  br label %102

102:                                              ; preds = %101
  br i1 true, label %103, label %105

103:                                              ; preds = %102
  %104 = call zeroext i1 @errstart_cold(i32 noundef 21, ptr noundef null) #8
  br i1 %104, label %107, label %117

105:                                              ; preds = %102
  %106 = call zeroext i1 @errstart(i32 noundef 21, ptr noundef null)
  br i1 %106, label %107, label %117

107:                                              ; preds = %105, %103
  %108 = call i32 @errcode(i32 noundef 1088)
  %109 = load ptr, ptr %4, align 8
  %110 = getelementptr inbounds nuw %struct.ParseState, ptr %109, i32 0, i32 19
  %111 = load i32, ptr %110, align 8
  %112 = call ptr @ParseExprKindName(i32 noundef %111)
  %113 = call i32 (ptr, ...) @errmsg(ptr noundef @.str.91, ptr noundef %112)
  %114 = load ptr, ptr %4, align 8
  %115 = load i32, ptr %6, align 4
  %116 = call i32 @parser_errposition(ptr noundef %114, i32 noundef %115)
  call void @errfinish(ptr noundef @.str.3, i32 noundef 2681, ptr noundef @__func__.check_srf_call_placement)
  br label %117

117:                                              ; preds = %107, %105, %103
  unreachable

118:                                              ; No predecessors!
  br label %119

119:                                              ; preds = %118
  br label %120

120:                                              ; preds = %119, %98
  call void @llvm.lifetime.end.p0(i64 1, ptr %8) #7
  call void @llvm.lifetime.end.p0(i64 8, ptr %7) #7
  ret void
}