; Function Attrs: nounwind uwtable
define dso_local void @check_srf_call_placement(ptr noundef %0, ptr noundef readnone captures(address) %1, i32 noundef %2) local_unnamed_addr #0 {
  %4 = getelementptr inbounds nuw i8, ptr %0, i64 144
  %5 = load i32, ptr %4, align 8
  switch i32 %5, label %45 [
    i32 43, label %31
    i32 44, label %37
    i32 2, label %32
    i32 3, label %32
    i32 4, label %37
    i32 5, label %6
    i32 6, label %37
    i32 38, label %16
    i32 7, label %37
    i32 8, label %37
    i32 9, label %.sink.split
    i32 10, label %.sink.split
    i32 11, label %17
    i32 12, label %17
    i32 13, label %17
    i32 14, label %.sink.split
    i32 15, label %.sink.split
    i32 16, label %37
    i32 17, label %37
    i32 19, label %.sink.split
    i32 20, label %.sink.split
    i32 21, label %.sink.split
    i32 22, label %37
    i32 23, label %37
    i32 24, label %37
    i32 25, label %37
    i32 26, label %37
    i32 27, label %.sink.split
    i32 18, label %18
    i32 28, label %19
    i32 29, label %19
    i32 30, label %20
    i32 31, label %20
    i32 32, label %21
    i32 33, label %22
    i32 34, label %23
    i32 35, label %24
    i32 36, label %25
    i32 37, label %26
    i32 39, label %27
    i32 40, label %28
    i32 41, label %29
    i32 42, label %30
  ]

6:                                                ; preds = %3
  %7 = getelementptr inbounds nuw i8, ptr %0, i64 192
  %8 = load ptr, ptr %7, align 8
  %.not = icmp eq ptr %8, %1
  br i1 %.not, label %45, label %9

9:                                                ; preds = %6
  %10 = tail call zeroext i1 @errstart_cold(i32 noundef 21, ptr noundef null) #9
  tail call void @llvm.assume(i1 %10)
  %11 = tail call i32 @errcode(i32 noundef 1088) #8
  %12 = tail call i32 (ptr, ...) @errmsg(ptr noundef nonnull @.str.73) #8
  %13 = load ptr, ptr %7, align 8
  %14 = tail call i32 @exprLocation(ptr noundef %13) #8
  %15 = tail call i32 @parser_errposition(ptr noundef nonnull %0, i32 noundef %14) #8
  tail call void @errfinish(ptr noundef nonnull @.str.3, i32 noundef 2555, ptr noundef nonnull @__func__.check_srf_call_placement) #8
  unreachable

16:                                               ; preds = %3
  br label %32

17:                                               ; preds = %3, %3, %3
  br label %32

18:                                               ; preds = %3
  br label %32

19:                                               ; preds = %3, %3
  br label %32

20:                                               ; preds = %3, %3
  br label %32

21:                                               ; preds = %3
  br label %32

22:                                               ; preds = %3
  br label %32

23:                                               ; preds = %3
  br label %32

24:                                               ; preds = %3
  br label %32

25:                                               ; preds = %3
  br label %32

26:                                               ; preds = %3
  br label %32

27:                                               ; preds = %3
  br label %32

28:                                               ; preds = %3
  br label %32

29:                                               ; preds = %3
  br label %32

30:                                               ; preds = %3
  br label %32

31:                                               ; preds = %3
  br label %32

32:                                               ; preds = %3, %3, %30, %29, %28, %27, %26, %25, %24, %23, %22, %21, %20, %19, %18, %17, %16, %31
  %.017.ph = phi ptr [ @.str.89, %31 ], [ @.str.74, %16 ], [ @.str.75, %17 ], [ @.str.76, %18 ], [ @.str.77, %19 ], [ @.str.78, %20 ], [ @.str.79, %21 ], [ @.str.80, %22 ], [ @.str.81, %23 ], [ @.str.82, %24 ], [ @.str.83, %25 ], [ @.str.84, %26 ], [ @.str.85, %27 ], [ @.str.86, %28 ], [ @.str.87, %29 ], [ @.str.88, %30 ], [ @.str.72, %3 ], [ @.str.72, %3 ]
  %33 = tail call zeroext i1 @errstart_cold(i32 noundef 21, ptr noundef null) #9
  tail call void @llvm.assume(i1 %33)
  %34 = tail call i32 @errcode(i32 noundef 1088) #8
  %35 = tail call i32 (ptr, ...) @errmsg_internal(ptr noundef nonnull @.str.90, ptr noundef nonnull %.017.ph) #8
  %36 = tail call i32 @parser_errposition(ptr noundef nonnull %0, i32 noundef %2) #8
  tail call void @errfinish(ptr noundef nonnull @.str.3, i32 noundef 2674, ptr noundef nonnull @__func__.check_srf_call_placement) #8
  unreachable

37:                                               ; preds = %3, %3, %3, %3, %3, %3, %3, %3, %3, %3, %3, %3
  %38 = tail call zeroext i1 @errstart_cold(i32 noundef 21, ptr noundef null) #9
  tail call void @llvm.assume(i1 %38)
  %39 = tail call i32 @errcode(i32 noundef 1088) #8
  %40 = load i32, ptr %4, align 8
  %41 = tail call ptr @ParseExprKindName(i32 noundef %40) #8
  %42 = tail call i32 (ptr, ...) @errmsg(ptr noundef nonnull @.str.91, ptr noundef %41) #8
  %43 = tail call i32 @parser_errposition(ptr noundef nonnull %0, i32 noundef %2) #8
  tail call void @errfinish(ptr noundef nonnull @.str.3, i32 noundef 2681, ptr noundef nonnull @__func__.check_srf_call_placement) #8
  unreachable

.sink.split:                                      ; preds = %3, %3, %3, %3, %3, %3, %3, %3
  %44 = getelementptr inbounds nuw i8, ptr %0, i64 186
  store i8 1, ptr %44, align 2
  br label %45

45:                                               ; preds = %.sink.split, %3, %6
  ret void
}